target datalayout = "e-m:e-p270:32:32-p271:32:32-p272:64:64-i64:64-f80:128-n8:16:32:64-S128"
target triple = "x86_64-pc-linux-gnu"

%struct.student = type { [10 x i8], i32 }

@.str = private unnamed_addr constant [3 x i8] c"%d\00", align 1
@.str.1 = private unnamed_addr constant [5 x i8] c"%s%d\00", align 1
@line = common dso_local global [100 x %struct.student] zeroinitializer, align 16
@.str.2 = private unnamed_addr constant [4 x i8] c"%s\0A\00", align 1

; Function Attrs: noinline nounwind uwtable
define dso_local void @main() #0 {
  %1 = alloca i32, align 4
  %2 = alloca i32, align 4
  %3 = alloca i32, align 4
  %4 = alloca i32, align 4
  %5 = alloca i32, align 4
  %6 = alloca i32, align 4
  %7 = alloca i32, align 4
  %8 = alloca [100 x i32], align 16
  %9 = alloca [100 x i32], align 16
  %10 = alloca [100 x [10 x i8]], align 16
  %11 = alloca [100 x [10 x i8]], align 16
  %12 = alloca [10 x i8], align 1
  store i32 0, i32* %5, align 4
  %13 = call i32 (i8*, ...) @__isoc99_scanf(i8* getelementptr inbounds ([3 x i8], [3 x i8]* @.str, i64 0, i64 0), i32* %1)
  %14 = bitcast [100 x i32]* %8 to i8*
  call void @llvm.memset.p0i8.i64(i8* align 16 %14, i8 0, i64 400, i1 false)
  %15 = bitcast [100 x i32]* %9 to i8*
  call void @llvm.memset.p0i8.i64(i8* align 16 %15, i8 0, i64 400, i1 false)
  store i32 0, i32* %2, align 4
  br label %16

16:                                               ; preds = %31, %0
  %17 = load i32, i32* %2, align 4
  %18 = load i32, i32* %1, align 4
  %19 = icmp slt i32 %17, %18
  br i1 %19, label %20, label %34

20:                                               ; preds = %16
  %21 = load i32, i32* %2, align 4
  %22 = sext i32 %21 to i64
  %23 = getelementptr inbounds [100 x %struct.student], [100 x %struct.student]* @line, i64 0, i64 %22
  %24 = getelementptr inbounds %struct.student, %struct.student* %23, i32 0, i32 0
  %25 = getelementptr inbounds [10 x i8], [10 x i8]* %24, i64 0, i64 0
  %26 = load i32, i32* %2, align 4
  %27 = sext i32 %26 to i64
  %28 = getelementptr inbounds [100 x %struct.student], [100 x %struct.student]* @line, i64 0, i64 %27
  %29 = getelementptr inbounds %struct.student, %struct.student* %28, i32 0, i32 1
  %30 = call i32 (i8*, ...) @__isoc99_scanf(i8* getelementptr inbounds ([5 x i8], [5 x i8]* @.str.1, i64 0, i64 0), i8* %25, i32* %29)
  br label %31

31:                                               ; preds = %20
  %32 = load i32, i32* %2, align 4
  %33 = add nsw i32 %32, 1
  store i32 %33, i32* %2, align 4
  br label %16

34:                                               ; preds = %16
  store i32 0, i32* %2, align 4
  br label %35

35:                                               ; preds = %50, %34
  %36 = load i32, i32* %2, align 4
  %37 = load i32, i32* %1, align 4
  %38 = icmp slt i32 %36, %37
  br i1 %38, label %39, label %53

39:                                               ; preds = %35
  %40 = load i32, i32* %2, align 4
  %41 = sext i32 %40 to i64
  %42 = getelementptr inbounds [100 x %struct.student], [100 x %struct.student]* @line, i64 0, i64 %41
  %43 = getelementptr inbounds %struct.student, %struct.student* %42, i32 0, i32 1
  %44 = load i32, i32* %43, align 4
  %45 = icmp sge i32 %44, 60
  br i1 %45, label %46, label %49

46:                                               ; preds = %39
  %47 = load i32, i32* %5, align 4
  %48 = add nsw i32 %47, 1
  store i32 %48, i32* %5, align 4
  br label %49

49:                                               ; preds = %46, %39
  br label %50

50:                                               ; preds = %49
  %51 = load i32, i32* %2, align 4
  %52 = add nsw i32 %51, 1
  store i32 %52, i32* %2, align 4
  br label %35

53:                                               ; preds = %35
  store i32 0, i32* %3, align 4
  store i32 0, i32* %2, align 4
  br label %54

54:                                               ; preds = %87, %53
  %55 = load i32, i32* %2, align 4
  %56 = load i32, i32* %1, align 4
  %57 = icmp slt i32 %55, %56
  br i1 %57, label %58, label %90

58:                                               ; preds = %54
  %59 = load i32, i32* %2, align 4
  %60 = sext i32 %59 to i64
  %61 = getelementptr inbounds [100 x %struct.student], [100 x %struct.student]* @line, i64 0, i64 %60
  %62 = getelementptr inbounds %struct.student, %struct.student* %61, i32 0, i32 1
  %63 = load i32, i32* %62, align 4
  %64 = icmp sge i32 %63, 60
  br i1 %64, label %65, label %86

65:                                               ; preds = %58
  %66 = load i32, i32* %3, align 4
  %67 = sext i32 %66 to i64
  %68 = getelementptr inbounds [100 x [10 x i8]], [100 x [10 x i8]]* %10, i64 0, i64 %67
  %69 = getelementptr inbounds [10 x i8], [10 x i8]* %68, i64 0, i64 0
  %70 = load i32, i32* %2, align 4
  %71 = sext i32 %70 to i64
  %72 = getelementptr inbounds [100 x %struct.student], [100 x %struct.student]* @line, i64 0, i64 %71
  %73 = getelementptr inbounds %struct.student, %struct.student* %72, i32 0, i32 0
  %74 = getelementptr inbounds [10 x i8], [10 x i8]* %73, i64 0, i64 0
  %75 = call i8* @strcpy(i8* %69, i8* %74) #4
  %76 = load i32, i32* %2, align 4
  %77 = sext i32 %76 to i64
  %78 = getelementptr inbounds [100 x %struct.student], [100 x %struct.student]* @line, i64 0, i64 %77
  %79 = getelementptr inbounds %struct.student, %struct.student* %78, i32 0, i32 1
  %80 = load i32, i32* %79, align 4
  %81 = load i32, i32* %3, align 4
  %82 = sext i32 %81 to i64
  %83 = getelementptr inbounds [100 x i32], [100 x i32]* %9, i64 0, i64 %82
  store i32 %80, i32* %83, align 4
  %84 = load i32, i32* %3, align 4
  %85 = add nsw i32 %84, 1
  store i32 %85, i32* %3, align 4
  br label %86

86:                                               ; preds = %65, %58
  br label %87

87:                                               ; preds = %86
  %88 = load i32, i32* %2, align 4
  %89 = add nsw i32 %88, 1
  store i32 %89, i32* %2, align 4
  br label %54

90:                                               ; preds = %54
  store i32 0, i32* %3, align 4
  br label %91

91:                                               ; preds = %159, %90
  %92 = load i32, i32* %3, align 4
  %93 = load i32, i32* %5, align 4
  %94 = icmp slt i32 %92, %93
  br i1 %94, label %95, label %162

95:                                               ; preds = %91
  store i32 0, i32* %4, align 4
  br label %96

96:                                               ; preds = %155, %95
  %97 = load i32, i32* %4, align 4
  %98 = load i32, i32* %5, align 4
  %99 = load i32, i32* %3, align 4
  %100 = sub nsw i32 %98, %99
  %101 = icmp slt i32 %97, %100
  br i1 %101, label %102, label %158

102:                                              ; preds = %96
  %103 = load i32, i32* %4, align 4
  %104 = sext i32 %103 to i64
  %105 = getelementptr inbounds [100 x i32], [100 x i32]* %9, i64 0, i64 %104
  %106 = load i32, i32* %105, align 4
  %107 = load i32, i32* %4, align 4
  %108 = add nsw i32 %107, 1
  %109 = sext i32 %108 to i64
  %110 = getelementptr inbounds [100 x i32], [100 x i32]* %9, i64 0, i64 %109
  %111 = load i32, i32* %110, align 4
  %112 = icmp slt i32 %106, %111
  br i1 %112, label %113, label %154

113:                                              ; preds = %102
  %114 = load i32, i32* %4, align 4
  %115 = sext i32 %114 to i64
  %116 = getelementptr inbounds [100 x i32], [100 x i32]* %9, i64 0, i64 %115
  %117 = load i32, i32* %116, align 4
  store i32 %117, i32* %7, align 4
  %118 = load i32, i32* %4, align 4
  %119 = add nsw i32 %118, 1
  %120 = sext i32 %119 to i64
  %121 = getelementptr inbounds [100 x i32], [100 x i32]* %9, i64 0, i64 %120
  %122 = load i32, i32* %121, align 4
  %123 = load i32, i32* %4, align 4
  %124 = sext i32 %123 to i64
  %125 = getelementptr inbounds [100 x i32], [100 x i32]* %9, i64 0, i64 %124
  store i32 %122, i32* %125, align 4
  %126 = load i32, i32* %7, align 4
  %127 = load i32, i32* %4, align 4
  %128 = add nsw i32 %127, 1
  %129 = sext i32 %128 to i64
  %130 = getelementptr inbounds [100 x i32], [100 x i32]* %9, i64 0, i64 %129
  store i32 %126, i32* %130, align 4
  %131 = getelementptr inbounds [10 x i8], [10 x i8]* %12, i64 0, i64 0
  %132 = load i32, i32* %4, align 4
  %133 = sext i32 %132 to i64
  %134 = getelementptr inbounds [100 x [10 x i8]], [100 x [10 x i8]]* %10, i64 0, i64 %133
  %135 = getelementptr inbounds [10 x i8], [10 x i8]* %134, i64 0, i64 0
  %136 = call i8* @strcpy(i8* %131, i8* %135) #4
  %137 = load i32, i32* %4, align 4
  %138 = sext i32 %137 to i64
  %139 = getelementptr inbounds [100 x [10 x i8]], [100 x [10 x i8]]* %10, i64 0, i64 %138
  %140 = getelementptr inbounds [10 x i8], [10 x i8]* %139, i64 0, i64 0
  %141 = load i32, i32* %4, align 4
  %142 = add nsw i32 %141, 1
  %143 = sext i32 %142 to i64
  %144 = getelementptr inbounds [100 x [10 x i8]], [100 x [10 x i8]]* %10, i64 0, i64 %143
  %145 = getelementptr inbounds [10 x i8], [10 x i8]* %144, i64 0, i64 0
  %146 = call i8* @strcpy(i8* %140, i8* %145) #4
  %147 = load i32, i32* %4, align 4
  %148 = add nsw i32 %147, 1
  %149 = sext i32 %148 to i64
  %150 = getelementptr inbounds [100 x [10 x i8]], [100 x [10 x i8]]* %10, i64 0, i64 %149
  %151 = getelementptr inbounds [10 x i8], [10 x i8]* %150, i64 0, i64 0
  %152 = getelementptr inbounds [10 x i8], [10 x i8]* %12, i64 0, i64 0
  %153 = call i8* @strcpy(i8* %151, i8* %152) #4
  br label %154

154:                                              ; preds = %113, %102
  br label %155

155:                                              ; preds = %154
  %156 = load i32, i32* %4, align 4
  %157 = add nsw i32 %156, 1
  store i32 %157, i32* %4, align 4
  br label %96

158:                                              ; preds = %96
  br label %159

159:                                              ; preds = %158
  %160 = load i32, i32* %3, align 4
  %161 = add nsw i32 %160, 1
  store i32 %161, i32* %3, align 4
  br label %91

162:                                              ; preds = %91
  store i32 0, i32* %3, align 4
  br label %163

163:                                              ; preds = %173, %162
  %164 = load i32, i32* %3, align 4
  %165 = load i32, i32* %5, align 4
  %166 = icmp slt i32 %164, %165
  br i1 %166, label %167, label %176

167:                                              ; preds = %163
  %168 = load i32, i32* %3, align 4
  %169 = sext i32 %168 to i64
  %170 = getelementptr inbounds [100 x [10 x i8]], [100 x [10 x i8]]* %10, i64 0, i64 %169
  %171 = getelementptr inbounds [10 x i8], [10 x i8]* %170, i64 0, i64 0
  %172 = call i32 (i8*, ...) @printf(i8* getelementptr inbounds ([4 x i8], [4 x i8]* @.str.2, i64 0, i64 0), i8* %171)
  br label %173

173:                                              ; preds = %167
  %174 = load i32, i32* %3, align 4
  %175 = add nsw i32 %174, 1
  store i32 %175, i32* %3, align 4
  br label %163

176:                                              ; preds = %163
  store i32 0, i32* %6, align 4
  store i32 0, i32* %2, align 4
  br label %177

177:                                              ; preds = %202, %176
  %178 = load i32, i32* %2, align 4
  %179 = load i32, i32* %1, align 4
  %180 = icmp slt i32 %178, %179
  br i1 %180, label %181, label %205

181:                                              ; preds = %177
  %182 = load i32, i32* %2, align 4
  %183 = sext i32 %182 to i64
  %184 = getelementptr inbounds [100 x %struct.student], [100 x %struct.student]* @line, i64 0, i64 %183
  %185 = getelementptr inbounds %struct.student, %struct.student* %184, i32 0, i32 1
  %186 = load i32, i32* %185, align 4
  %187 = icmp slt i32 %186, 60
  br i1 %187, label %188, label %201

188:                                              ; preds = %181
  %189 = load i32, i32* %6, align 4
  %190 = sext i32 %189 to i64
  %191 = getelementptr inbounds [100 x [10 x i8]], [100 x [10 x i8]]* %11, i64 0, i64 %190
  %192 = getelementptr inbounds [10 x i8], [10 x i8]* %191, i64 0, i64 0
  %193 = load i32, i32* %2, align 4
  %194 = sext i32 %193 to i64
  %195 = getelementptr inbounds [100 x %struct.student], [100 x %struct.student]* @line, i64 0, i64 %194
  %196 = getelementptr inbounds %struct.student, %struct.student* %195, i32 0, i32 0
  %197 = getelementptr inbounds [10 x i8], [10 x i8]* %196, i64 0, i64 0
  %198 = call i8* @strcpy(i8* %192, i8* %197) #4
  %199 = load i32, i32* %6, align 4
  %200 = add nsw i32 %199, 1
  store i32 %200, i32* %6, align 4
  br label %201

201:                                              ; preds = %188, %181
  br label %202

202:                                              ; preds = %201
  %203 = load i32, i32* %2, align 4
  %204 = add nsw i32 %203, 1
  store i32 %204, i32* %2, align 4
  br label %177

205:                                              ; preds = %177
  store i32 0, i32* %3, align 4
  br label %206

206:                                              ; preds = %218, %205
  %207 = load i32, i32* %3, align 4
  %208 = load i32, i32* %1, align 4
  %209 = load i32, i32* %5, align 4
  %210 = sub nsw i32 %208, %209
  %211 = icmp slt i32 %207, %210
  br i1 %211, label %212, label %221

212:                                              ; preds = %206
  %213 = load i32, i32* %3, align 4
  %214 = sext i32 %213 to i64
  %215 = getelementptr inbounds [100 x [10 x i8]], [100 x [10 x i8]]* %11, i64 0, i64 %214
  %216 = getelementptr inbounds [10 x i8], [10 x i8]* %215, i64 0, i64 0
  %217 = call i32 (i8*, ...) @printf(i8* getelementptr inbounds ([4 x i8], [4 x i8]* @.str.2, i64 0, i64 0), i8* %216)
  br label %218

218:                                              ; preds = %212
  %219 = load i32, i32* %3, align 4
  %220 = add nsw i32 %219, 1
  store i32 %220, i32* %3, align 4
  br label %206

221:                                              ; preds = %206
  ret void
}